target datalayout = "e-m:e-p270:32:32-p271:32:32-p272:64:64-i64:64-i128:128-f80:128-n8:16:32:64-S128"
target triple = "x86_64-pc-linux-gnu"

%struct.cmsCIELab = type { double, double, double }
%struct.cmsCIELCh = type { double, double, double }

@.str.1 = private unnamed_addr constant [14 x i8] c"Invalid angle\00", align 1

; Function Attrs: nounwind uwtable
define hidden i32 @cmsDesaturateLab(ptr noundef %0, double noundef %1, double noundef %2, double noundef %3, double noundef %4) #0 {
  %6 = alloca i32, align 4
  %7 = alloca ptr, align 8
  %8 = alloca double, align 8
  %9 = alloca double, align 8
  %10 = alloca double, align 8
  %11 = alloca double, align 8
  %12 = alloca %struct.cmsCIELCh, align 8
  %13 = alloca double, align 8
  %14 = alloca double, align 8
  store ptr %0, ptr %7, align 8
  store double %1, ptr %8, align 8
  store double %2, ptr %9, align 8
  store double %3, ptr %10, align 8
  store double %4, ptr %11, align 8
  %15 = load ptr, ptr %7, align 8
  %16 = getelementptr inbounds %struct.cmsCIELab, ptr %15, i32 0, i32 0
  %17 = load double, ptr %16, align 8
  %18 = fcmp olt double %17, 0.000000e+00
  br i1 %18, label %19, label %26

19:                                               ; preds = %5
  %20 = load ptr, ptr %7, align 8
  %21 = getelementptr inbounds %struct.cmsCIELab, ptr %20, i32 0, i32 2
  store double 0.000000e+00, ptr %21, align 8
  %22 = load ptr, ptr %7, align 8
  %23 = getelementptr inbounds %struct.cmsCIELab, ptr %22, i32 0, i32 1
  store double 0.000000e+00, ptr %23, align 8
  %24 = load ptr, ptr %7, align 8
  %25 = getelementptr inbounds %struct.cmsCIELab, ptr %24, i32 0, i32 0
  store double 0.000000e+00, ptr %25, align 8
  store i32 0, ptr %6, align 4
  br label %158

26:                                               ; preds = %5
  %27 = load ptr, ptr %7, align 8
  %28 = getelementptr inbounds %struct.cmsCIELab, ptr %27, i32 0, i32 0
  %29 = load double, ptr %28, align 8
  %30 = fcmp ogt double %29, 1.000000e+02
  br i1 %30, label %31, label %34

31:                                               ; preds = %26
  %32 = load ptr, ptr %7, align 8
  %33 = getelementptr inbounds %struct.cmsCIELab, ptr %32, i32 0, i32 0
  store double 1.000000e+02, ptr %33, align 8
  br label %34

34:                                               ; preds = %31, %26
  %35 = load ptr, ptr %7, align 8
  %36 = getelementptr inbounds %struct.cmsCIELab, ptr %35, i32 0, i32 1
  %37 = load double, ptr %36, align 8
  %38 = load double, ptr %9, align 8
  %39 = fcmp olt double %37, %38
  br i1 %39, label %58, label %40

40:                                               ; preds = %34
  %41 = load ptr, ptr %7, align 8
  %42 = getelementptr inbounds %struct.cmsCIELab, ptr %41, i32 0, i32 1
  %43 = load double, ptr %42, align 8
  %44 = load double, ptr %8, align 8
  %45 = fcmp ogt double %43, %44
  br i1 %45, label %58, label %46

46:                                               ; preds = %40
  %47 = load ptr, ptr %7, align 8
  %48 = getelementptr inbounds %struct.cmsCIELab, ptr %47, i32 0, i32 2
  %49 = load double, ptr %48, align 8
  %50 = load double, ptr %11, align 8
  %51 = fcmp olt double %49, %50
  br i1 %51, label %58, label %52

52:                                               ; preds = %46
  %53 = load ptr, ptr %7, align 8
  %54 = getelementptr inbounds %struct.cmsCIELab, ptr %53, i32 0, i32 2
  %55 = load double, ptr %54, align 8
  %56 = load double, ptr %10, align 8
  %57 = fcmp ogt double %55, %56
  br i1 %57, label %58, label %157

58:                                               ; preds = %52, %46, %40, %34
  %59 = load ptr, ptr %7, align 8
  %60 = getelementptr inbounds %struct.cmsCIELab, ptr %59, i32 0, i32 1
  %61 = load double, ptr %60, align 8
  %62 = fcmp oeq double %61, 0.000000e+00
  br i1 %62, label %63, label %76

63:                                               ; preds = %58
  %64 = load ptr, ptr %7, align 8
  %65 = getelementptr inbounds %struct.cmsCIELab, ptr %64, i32 0, i32 2
  %66 = load double, ptr %65, align 8
  %67 = fcmp olt double %66, 0.000000e+00
  br i1 %67, label %68, label %70

68:                                               ; preds = %63
  %69 = load double, ptr %11, align 8
  br label %72

70:                                               ; preds = %63
  %71 = load double, ptr %10, align 8
  br label %72

72:                                               ; preds = %70, %68
  %73 = phi double [ %69, %68 ], [ %71, %70 ]
  %74 = load ptr, ptr %7, align 8
  %75 = getelementptr inbounds %struct.cmsCIELab, ptr %74, i32 0, i32 2
  store double %73, ptr %75, align 8
  store i32 1, ptr %6, align 4
  br label %158

76:                                               ; preds = %58
  %77 = load ptr, ptr %7, align 8
  call void @cmsLab2LCh(ptr noundef %12, ptr noundef %77)
  %78 = load ptr, ptr %7, align 8
  %79 = getelementptr inbounds %struct.cmsCIELab, ptr %78, i32 0, i32 2
  %80 = load double, ptr %79, align 8
  %81 = load ptr, ptr %7, align 8
  %82 = getelementptr inbounds %struct.cmsCIELab, ptr %81, i32 0, i32 1
  %83 = load double, ptr %82, align 8
  %84 = fdiv double %80, %83
  store double %84, ptr %14, align 8
  %85 = getelementptr inbounds %struct.cmsCIELCh, ptr %12, i32 0, i32 2
  %86 = load double, ptr %85, align 8
  store double %86, ptr %13, align 8
  %87 = load double, ptr %13, align 8
  %88 = fcmp oge double %87, 0.000000e+00
  br i1 %88, label %89, label %92

89:                                               ; preds = %76
  %90 = load double, ptr %13, align 8
  %91 = fcmp olt double %90, 4.500000e+01
  br i1 %91, label %98, label %92

92:                                               ; preds = %89, %76
  %93 = load double, ptr %13, align 8
  %94 = fcmp oge double %93, 3.150000e+02
  br i1 %94, label %95, label %107

95:                                               ; preds = %92
  %96 = load double, ptr %13, align 8
  %97 = fcmp ole double %96, 3.600000e+02
  br i1 %97, label %98, label %107

98:                                               ; preds = %95, %89
  %99 = load double, ptr %8, align 8
  %100 = load ptr, ptr %7, align 8
  %101 = getelementptr inbounds %struct.cmsCIELab, ptr %100, i32 0, i32 1
  store double %99, ptr %101, align 8
  %102 = load double, ptr %8, align 8
  %103 = load double, ptr %14, align 8
  %104 = fmul double %102, %103
  %105 = load ptr, ptr %7, align 8
  %106 = getelementptr inbounds %struct.cmsCIELab, ptr %105, i32 0, i32 2
  store double %104, ptr %106, align 8
  br label %156

107:                                              ; preds = %95, %92
  %108 = load double, ptr %13, align 8
  %109 = fcmp oge double %108, 4.500000e+01
  br i1 %109, label %110, label %122

110:                                              ; preds = %107
  %111 = load double, ptr %13, align 8
  %112 = fcmp olt double %111, 1.350000e+02
  br i1 %112, label %113, label %122

113:                                              ; preds = %110
  %114 = load double, ptr %10, align 8
  %115 = load ptr, ptr %7, align 8
  %116 = getelementptr inbounds %struct.cmsCIELab, ptr %115, i32 0, i32 2
  store double %114, ptr %116, align 8
  %117 = load double, ptr %10, align 8
  %118 = load double, ptr %14, align 8
  %119 = fdiv double %117, %118
  %120 = load ptr, ptr %7, align 8
  %121 = getelementptr inbounds %struct.cmsCIELab, ptr %120, i32 0, i32 1
  store double %119, ptr %121, align 8
  br label %155

122:                                              ; preds = %110, %107
  %123 = load double, ptr %13, align 8
  %124 = fcmp oge double %123, 1.350000e+02
  br i1 %124, label %125, label %137

125:                                              ; preds = %122
  %126 = load double, ptr %13, align 8
  %127 = fcmp olt double %126, 2.250000e+02
  br i1 %127, label %128, label %137

128:                                              ; preds = %125
  %129 = load double, ptr %9, align 8
  %130 = load ptr, ptr %7, align 8
  %131 = getelementptr inbounds %struct.cmsCIELab, ptr %130, i32 0, i32 1
  store double %129, ptr %131, align 8
  %132 = load double, ptr %9, align 8
  %133 = load double, ptr %14, align 8
  %134 = fmul double %132, %133
  %135 = load ptr, ptr %7, align 8
  %136 = getelementptr inbounds %struct.cmsCIELab, ptr %135, i32 0, i32 2
  store double %134, ptr %136, align 8
  br label %154

137:                                              ; preds = %125, %122
  %138 = load double, ptr %13, align 8
  %139 = fcmp oge double %138, 2.250000e+02
  br i1 %139, label %140, label %152

140:                                              ; preds = %137
  %141 = load double, ptr %13, align 8
  %142 = fcmp olt double %141, 3.150000e+02
  br i1 %142, label %143, label %152

143:                                              ; preds = %140
  %144 = load double, ptr %11, align 8
  %145 = load ptr, ptr %7, align 8
  %146 = getelementptr inbounds %struct.cmsCIELab, ptr %145, i32 0, i32 2
  store double %144, ptr %146, align 8
  %147 = load double, ptr %11, align 8
  %148 = load double, ptr %14, align 8
  %149 = fdiv double %147, %148
  %150 = load ptr, ptr %7, align 8
  %151 = getelementptr inbounds %struct.cmsCIELab, ptr %150, i32 0, i32 1
  store double %149, ptr %151, align 8
  br label %153

152:                                              ; preds = %140, %137
  call void (ptr, i32, ptr, ...) @cmsSignalError(ptr noundef null, i32 noundef 2, ptr noundef @.str.1)
  store i32 0, ptr %6, align 4
  br label %158

153:                                              ; preds = %143
  br label %154

154:                                              ; preds = %153, %128
  br label %155

155:                                              ; preds = %154, %113
  br label %156

156:                                              ; preds = %155, %98
  br label %157

157:                                              ; preds = %156, %52
  store i32 1, ptr %6, align 4
  br label %158

158:                                              ; preds = %157, %152, %72, %19
  %159 = load i32, ptr %6, align 4
  ret i32 %159
}