; Function Attrs: nounwind uwtable
define hidden range(i32 0, 2) i32 @cmsDesaturateLab(ptr noundef %0, double noundef %1, double noundef %2, double noundef %3, double noundef %4) local_unnamed_addr #0 {
  %6 = alloca %struct.cmsCIELCh, align 8
  %7 = load double, ptr %0, align 8
  %8 = fcmp olt double %7, 0.000000e+00
  br i1 %8, label %9, label %10

9:                                                ; preds = %5
  tail call void @llvm.memset.p0.i64(ptr noundef nonnull align 8 dereferenceable(24) %0, i8 0, i64 24, i1 false)
  br label %60

10:                                               ; preds = %5
  %11 = fcmp ogt double %7, 1.000000e+02
  br i1 %11, label %12, label %13

12:                                               ; preds = %10
  store double 1.000000e+02, ptr %0, align 8
  br label %13

13:                                               ; preds = %12, %10
  %14 = getelementptr inbounds i8, ptr %0, i64 8
  %15 = load double, ptr %14, align 8
  %16 = fcmp olt double %15, %2
  %17 = fcmp ogt double %15, %1
  %or.cond64 = or i1 %16, %17
  br i1 %or.cond64, label %23, label %18

18:                                               ; preds = %13
  %19 = getelementptr inbounds i8, ptr %0, i64 16
  %20 = load double, ptr %19, align 8
  %21 = fcmp olt double %20, %4
  %22 = fcmp ogt double %20, %3
  %or.cond65 = or i1 %21, %22
  br i1 %or.cond65, label %23, label %60

23:                                               ; preds = %18, %13
  %24 = fcmp oeq double %15, 0.000000e+00
  br i1 %24, label %25, label %30

25:                                               ; preds = %23
  %26 = getelementptr inbounds i8, ptr %0, i64 16
  %27 = load double, ptr %26, align 8
  %28 = fcmp olt double %27, 0.000000e+00
  %29 = select i1 %28, double %4, double %3
  store double %29, ptr %26, align 8
  br label %60

30:                                               ; preds = %23
  call void @cmsLab2LCh(ptr noundef nonnull %6, ptr noundef nonnull %0) #6
  %31 = getelementptr inbounds i8, ptr %0, i64 16
  %32 = load double, ptr %31, align 8
  %33 = load double, ptr %14, align 8
  %34 = fdiv double %32, %33
  %35 = getelementptr inbounds i8, ptr %6, i64 16
  %36 = load double, ptr %35, align 8
  %37 = fcmp oge double %36, 0.000000e+00
  %38 = fcmp olt double %36, 4.500000e+01
  %or.cond = and i1 %37, %38
  br i1 %or.cond, label %42, label %39

39:                                               ; preds = %30
  %40 = fcmp oge double %36, 3.150000e+02
  %41 = fcmp ole double %36, 3.600000e+02
  %or.cond3 = and i1 %40, %41
  br i1 %or.cond3, label %42, label %44

42:                                               ; preds = %39, %30
  store double %1, ptr %14, align 8
  %43 = fmul double %34, %1
  store double %43, ptr %31, align 8
  br label %60

44:                                               ; preds = %39
  %45 = fcmp oge double %36, 4.500000e+01
  %46 = fcmp olt double %36, 1.350000e+02
  %or.cond5 = and i1 %45, %46
  br i1 %or.cond5, label %47, label %49

47:                                               ; preds = %44
  store double %3, ptr %31, align 8
  %48 = fdiv double %3, %34
  store double %48, ptr %14, align 8
  br label %60

49:                                               ; preds = %44
  %50 = fcmp oge double %36, 1.350000e+02
  %51 = fcmp olt double %36, 2.250000e+02
  %or.cond7 = and i1 %50, %51
  br i1 %or.cond7, label %52, label %54

52:                                               ; preds = %49
  store double %2, ptr %14, align 8
  %53 = fmul double %34, %2
  store double %53, ptr %31, align 8
  br label %60

54:                                               ; preds = %49
  %55 = fcmp oge double %36, 2.250000e+02
  %56 = fcmp olt double %36, 3.150000e+02
  %or.cond9 = and i1 %55, %56
  br i1 %or.cond9, label %57, label %59

57:                                               ; preds = %54
  store double %4, ptr %31, align 8
  %58 = fdiv double %4, %34
  store double %58, ptr %14, align 8
  br label %60

59:                                               ; preds = %54
  call void (ptr, i32, ptr, ...) @cmsSignalError(ptr noundef null, i32 noundef 2, ptr noundef nonnull @.str.1) #6
  br label %60

60:                                               ; preds = %47, %57, %52, %42, %18, %59, %25, %9
  %.0 = phi i32 [ 0, %9 ], [ 1, %25 ], [ 0, %59 ], [ 1, %18 ], [ 1, %42 ], [ 1, %52 ], [ 1, %57 ], [ 1, %47 ]
  ret i32 %.0
}